target datalayout = "e-m:e-p270:32:32-p271:32:32-p272:64:64-i64:64-i128:128-f80:128-n8:16:32:64-S128"
target triple = "x86_64-pc-linux-gnu"

%struct._packet_info = type { ptr, ptr, i32, i32, %struct.nstime_t, %struct.nstime_t, %struct.nstime_t, i8, ptr, ptr, ptr, ptr, %struct._address, %struct._address, %struct._address, %struct._address, %struct._address, %struct._address, i32, ptr, i8, [3 x i8], %struct.anon, i32, i32, i32, i32, ptr, i8, ptr, ptr, i16, i16, i32, i32, i16, i32, i32, ptr, ptr, ptr, i8, i8, i16, i16, i16, i32, i16, i16, ptr, ptr, ptr, ptr, ptr, i32, i32 }
%struct.nstime_t = type { i64, i32 }
%struct._address = type { i32, i32, ptr, ptr }
%struct.anon = type { i8, [3 x i8] }
%struct._usb_conv_info_t = type { i8, i16, i16, i16, i16, i8, i16, i32, i16, i8, ptr, ptr, i32, ptr }
%struct._cdc_data_conv = type { i32 }

@proto_usb = internal global i32 0, align 4
@.str.323 = private unnamed_addr constant [25 x i8] c"usbcom.data.stream eq %u\00", align 1

; Function Attrs: null_pointer_is_valid sspstrong uwtable
define internal ptr @get_cdc_data_conv(ptr noundef %0) #1 {
  %2 = alloca ptr, align 8
  %3 = alloca ptr, align 8
  %4 = alloca ptr, align 8
  %5 = alloca ptr, align 8
  %6 = alloca i32, align 4
  store ptr %0, ptr %3, align 8
  call void @llvm.lifetime.start.p0(i64 8, ptr %4) #13
  call void @llvm.lifetime.start.p0(i64 8, ptr %5) #13
  %7 = load ptr, ptr %3, align 8
  %8 = getelementptr inbounds nuw %struct._packet_info, ptr %7, i32 0, i32 23
  %9 = load i32, ptr %8, align 8
  %10 = icmp ne i32 %9, 8
  br i1 %10, label %11, label %12

11:                                               ; preds = %1
  store ptr null, ptr %2, align 8
  store i32 1, ptr %6, align 4
  br label %46

12:                                               ; preds = %1
  %13 = load ptr, ptr %3, align 8
  %14 = getelementptr inbounds nuw %struct._packet_info, ptr %13, i32 0, i32 3
  %15 = load i32, ptr %14, align 4
  %16 = load ptr, ptr %3, align 8
  %17 = getelementptr inbounds nuw %struct._packet_info, ptr %16, i32 0, i32 16
  %18 = load ptr, ptr %3, align 8
  %19 = getelementptr inbounds nuw %struct._packet_info, ptr %18, i32 0, i32 17
  %20 = load ptr, ptr %3, align 8
  %21 = getelementptr inbounds nuw %struct._packet_info, ptr %20, i32 0, i32 24
  %22 = load i32, ptr %21, align 4
  %23 = load ptr, ptr %3, align 8
  %24 = getelementptr inbounds nuw %struct._packet_info, ptr %23, i32 0, i32 25
  %25 = load i32, ptr %24, align 8
  %26 = call ptr @find_conversation(i32 noundef %15, ptr noundef %17, ptr noundef %19, i32 noundef 12, i32 noundef %22, i32 noundef %25, i32 noundef 0)
  store ptr %26, ptr %4, align 8
  %27 = load ptr, ptr %4, align 8
  %28 = icmp ne ptr %27, null
  br i1 %28, label %30, label %29

29:                                               ; preds = %12
  store ptr null, ptr %2, align 8
  store i32 1, ptr %6, align 4
  br label %46

30:                                               ; preds = %12
  %31 = load ptr, ptr %4, align 8
  %32 = load i32, ptr @proto_usb, align 4
  %33 = call ptr @conversation_get_proto_data(ptr noundef %31, i32 noundef %32)
  store ptr %33, ptr %5, align 8
  %34 = load ptr, ptr %5, align 8
  %35 = icmp ne ptr %34, null
  br i1 %35, label %36, label %41

36:                                               ; preds = %30
  %37 = load ptr, ptr %5, align 8
  %38 = getelementptr inbounds nuw %struct._usb_conv_info_t, ptr %37, i32 0, i32 12
  %39 = load i32, ptr %38, align 8
  %40 = icmp ne i32 %39, 6
  br i1 %40, label %41, label %42

41:                                               ; preds = %36, %30
  store ptr null, ptr %2, align 8
  store i32 1, ptr %6, align 4
  br label %46

42:                                               ; preds = %36
  %43 = load ptr, ptr %5, align 8
  %44 = getelementptr inbounds nuw %struct._usb_conv_info_t, ptr %43, i32 0, i32 11
  %45 = load ptr, ptr %44, align 8
  store ptr %45, ptr %2, align 8
  store i32 1, ptr %6, align 4
  br label %46

46:                                               ; preds = %42, %41, %29, %11
  call void @llvm.lifetime.end.p0(i64 8, ptr %5) #13
  call void @llvm.lifetime.end.p0(i64 8, ptr %4) #13
  %47 = load ptr, ptr %2, align 8
  ret ptr %47
}

; Function Attrs: null_pointer_is_valid sspstrong uwtable
define internal ptr @cdc_data_follow_conv_filter(ptr noundef %0, ptr noundef %1, ptr noundef %2, ptr noundef %3) #1 {
  %5 = alloca ptr, align 8
  %6 = alloca ptr, align 8
  %7 = alloca ptr, align 8
  %8 = alloca ptr, align 8
  %9 = alloca ptr, align 8
  %10 = alloca ptr, align 8
  %11 = alloca i32, align 4
  store ptr %0, ptr %6, align 8
  store ptr %1, ptr %7, align 8
  store ptr %2, ptr %8, align 8
  store ptr %3, ptr %9, align 8
  call void @llvm.lifetime.start.p0(i64 8, ptr %10) #13
  %12 = load ptr, ptr %7, align 8
  %13 = call ptr @get_cdc_data_conv(ptr noundef %12)
  store ptr %13, ptr %10, align 8
  %14 = load ptr, ptr %10, align 8
  %15 = icmp ne ptr %14, null
  br i1 %15, label %16, label %25

16:                                               ; preds = %4
  %17 = load ptr, ptr %10, align 8
  %18 = getelementptr inbounds nuw %struct._cdc_data_conv, ptr %17, i32 0, i32 0
  %19 = load i32, ptr %18, align 4
  %20 = load ptr, ptr %8, align 8
  store i32 %19, ptr %20, align 4
  %21 = load ptr, ptr %10, align 8
  %22 = getelementptr inbounds nuw %struct._cdc_data_conv, ptr %21, i32 0, i32 0
  %23 = load i32, ptr %22, align 4
  %24 = call noalias ptr (ptr, ptr, ...) @wmem_strdup_printf(ptr noundef null, ptr noundef @.str.323, i32 noundef %23)
  store ptr %24, ptr %5, align 8
  store i32 1, ptr %11, align 4
  br label %26

25:                                               ; preds = %4
  store ptr null, ptr %5, align 8
  store i32 1, ptr %11, align 4
  br label %26

26:                                               ; preds = %25, %16
  call void @llvm.lifetime.end.p0(i64 8, ptr %10) #13
  %27 = load ptr, ptr %5, align 8
  ret ptr %27
}