; Function Attrs: null_pointer_is_valid sspstrong uwtable
define internal noalias ptr @cdc_data_follow_conv_filter(ptr readnone captures(none) %0, ptr noundef %1, ptr noundef writeonly captures(none) %2, ptr readnone captures(none) %3) #1 {
  %5 = getelementptr inbounds nuw i8, ptr %1, i64 280
  %6 = load i32, ptr %5, align 8
  %.not.i = icmp eq i32 %6, 8
  br i1 %.not.i, label %7, label %get_cdc_data_conv.exit.thread

7:                                                ; preds = %4
  %8 = getelementptr inbounds nuw i8, ptr %1, i64 20
  %9 = load i32, ptr %8, align 4
  %10 = getelementptr inbounds nuw i8, ptr %1, i64 208
  %11 = getelementptr inbounds nuw i8, ptr %1, i64 232
  %12 = getelementptr inbounds nuw i8, ptr %1, i64 284
  %13 = load i32, ptr %12, align 4
  %14 = getelementptr inbounds nuw i8, ptr %1, i64 288
  %15 = load i32, ptr %14, align 8
  %16 = tail call ptr @find_conversation(i32 noundef %9, ptr noundef nonnull %10, ptr noundef nonnull %11, i32 noundef 12, i32 noundef %13, i32 noundef %15, i32 noundef 0)
  %.not14.i = icmp eq ptr %16, null
  br i1 %.not14.i, label %get_cdc_data_conv.exit.thread, label %17

17:                                               ; preds = %7
  %18 = load i32, ptr @proto_usb, align 4
  %19 = tail call ptr @conversation_get_proto_data(ptr noundef nonnull %16, i32 noundef %18)
  %.not15.i = icmp eq ptr %19, null
  br i1 %.not15.i, label %get_cdc_data_conv.exit.thread, label %20

20:                                               ; preds = %17
  %21 = getelementptr inbounds nuw i8, ptr %19, i64 40
  %22 = load i32, ptr %21, align 8
  %.not16.i = icmp eq i32 %22, 6
  br i1 %.not16.i, label %get_cdc_data_conv.exit, label %get_cdc_data_conv.exit.thread

get_cdc_data_conv.exit:                           ; preds = %20
  %23 = getelementptr inbounds nuw i8, ptr %19, i64 32
  %24 = load ptr, ptr %23, align 8
  %.not = icmp eq ptr %24, null
  br i1 %.not, label %get_cdc_data_conv.exit.thread, label %25

25:                                               ; preds = %get_cdc_data_conv.exit
  %26 = load i32, ptr %24, align 4
  store i32 %26, ptr %2, align 4
  %27 = tail call noalias ptr (ptr, ptr, ...) @wmem_strdup_printf(ptr noundef null, ptr noundef nonnull @.str.323, i32 noundef %26)
  br label %get_cdc_data_conv.exit.thread

get_cdc_data_conv.exit.thread:                    ; preds = %17, %20, %7, %4, %get_cdc_data_conv.exit, %25
  %.0 = phi ptr [ %27, %25 ], [ null, %get_cdc_data_conv.exit ], [ null, %4 ], [ null, %7 ], [ null, %20 ], [ null, %17 ]
  ret ptr %.0
}